target datalayout = "e-m:e-p270:32:32-p271:32:32-p272:64:64-i64:64-i128:128-f80:128-n8:16:32:64-S128"
target triple = "x86_64-pc-linux-gnu"

%struct.Node = type { i32 }
%struct.AlterObjectDependsStmt = type { i32, i32, ptr, ptr, ptr, i8 }

; Function Attrs: inlinehint nounwind willreturn memory(read) uwtable
define available_externally i32 @atoi(ptr noundef nonnull %0) #6 {
  %2 = alloca ptr, align 8
  store ptr %0, ptr %2, align 8
  %3 = load ptr, ptr %2, align 8
  %4 = call i64 @strtol(ptr noundef %3, ptr noundef null, i32 noundef 10) #9
  %5 = trunc i64 %4 to i32
  ret i32 %5
}

; Function Attrs: inlinehint nounwind uwtable
define internal ptr @newNode(i64 noundef %0, i32 noundef %1) #7 {
  %3 = alloca i64, align 8
  %4 = alloca i32, align 4
  %5 = alloca ptr, align 8
  store i64 %0, ptr %3, align 8
  store i32 %1, ptr %4, align 4
  call void @llvm.lifetime.start.p0(i64 8, ptr %5) #9
  %6 = load i64, ptr %3, align 8
  %7 = call ptr @palloc0(i64 noundef %6)
  store ptr %7, ptr %5, align 8
  %8 = load i32, ptr %4, align 4
  %9 = load ptr, ptr %5, align 8
  %10 = getelementptr inbounds nuw %struct.Node, ptr %9, i32 0, i32 0
  store i32 %8, ptr %10, align 4
  %11 = load ptr, ptr %5, align 8
  call void @llvm.lifetime.end.p0(i64 8, ptr %5) #9
  ret ptr %11
}

; Function Attrs: nounwind uwtable
define internal ptr @_readAlterObjectDependsStmt() #0 {
  %1 = alloca ptr, align 8
  %2 = alloca ptr, align 8
  %3 = alloca i32, align 4
  call void @llvm.lifetime.start.p0(i64 8, ptr %1) #9
  %4 = call ptr @newNode(i64 noundef 40, i32 noundef 215)
  store ptr %4, ptr %1, align 8
  call void @llvm.lifetime.start.p0(i64 8, ptr %2) #9
  call void @llvm.lifetime.start.p0(i64 4, ptr %3) #9
  %5 = call ptr @pg_strtok(ptr noundef %3)
  store ptr %5, ptr %2, align 8
  %6 = call ptr @pg_strtok(ptr noundef %3)
  store ptr %6, ptr %2, align 8
  %7 = load ptr, ptr %2, align 8
  %8 = call i32 @atoi(ptr noundef %7) #11
  %9 = load ptr, ptr %1, align 8
  %10 = getelementptr inbounds nuw %struct.AlterObjectDependsStmt, ptr %9, i32 0, i32 1
  store i32 %8, ptr %10, align 4
  %11 = call ptr @pg_strtok(ptr noundef %3)
  store ptr %11, ptr %2, align 8
  %12 = call ptr @nodeRead(ptr noundef null, i32 noundef 0)
  %13 = load ptr, ptr %1, align 8
  %14 = getelementptr inbounds nuw %struct.AlterObjectDependsStmt, ptr %13, i32 0, i32 2
  store ptr %12, ptr %14, align 8
  %15 = call ptr @pg_strtok(ptr noundef %3)
  store ptr %15, ptr %2, align 8
  %16 = call ptr @nodeRead(ptr noundef null, i32 noundef 0)
  %17 = load ptr, ptr %1, align 8
  %18 = getelementptr inbounds nuw %struct.AlterObjectDependsStmt, ptr %17, i32 0, i32 3
  store ptr %16, ptr %18, align 8
  %19 = call ptr @pg_strtok(ptr noundef %3)
  store ptr %19, ptr %2, align 8
  %20 = call ptr @nodeRead(ptr noundef null, i32 noundef 0)
  %21 = load ptr, ptr %1, align 8
  %22 = getelementptr inbounds nuw %struct.AlterObjectDependsStmt, ptr %21, i32 0, i32 4
  store ptr %20, ptr %22, align 8
  %23 = call ptr @pg_strtok(ptr noundef %3)
  store ptr %23, ptr %2, align 8
  %24 = call ptr @pg_strtok(ptr noundef %3)
  store ptr %24, ptr %2, align 8
  %25 = load ptr, ptr %2, align 8
  %26 = load i8, ptr %25, align 1
  %27 = sext i8 %26 to i32
  %28 = icmp eq i32 %27, 116
  %29 = select i1 %28, i32 1, i32 0
  %30 = icmp ne i32 %29, 0
  %31 = load ptr, ptr %1, align 8
  %32 = getelementptr inbounds nuw %struct.AlterObjectDependsStmt, ptr %31, i32 0, i32 5
  %33 = zext i1 %30 to i8
  store i8 %33, ptr %32, align 8
  %34 = load ptr, ptr %1, align 8
  call void @llvm.lifetime.end.p0(i64 4, ptr %3) #9
  call void @llvm.lifetime.end.p0(i64 8, ptr %2) #9
  call void @llvm.lifetime.end.p0(i64 8, ptr %1) #9
  ret ptr %34
}